target datalayout = "e-m:e-p270:32:32-p271:32:32-p272:64:64-i64:64-i128:128-f80:128-n8:16:32:64-S128"
target triple = "x86_64-pc-linux-gnu"

%struct.ZSTD_customMem = type { ptr, ptr, ptr }
%struct.ZSTD_frameParameters = type { i32, i32, i32 }
%struct.ZSTD_compressionParameters = type { i32, i32, i32, i32, i32, i32, i32 }
%struct.ZSTD_CCtx_s = type { i32, i32, i32, %struct.ZSTD_CCtx_params_s, %struct.ZSTD_CCtx_params_s, %struct.ZSTD_CCtx_params_s, i32, i64, %struct.ZSTD_cwksp, i64, i64, i64, i64, %struct.XXH64_state_s, %struct.ZSTD_customMem, ptr, i64, %struct.SeqCollector, i32, i32, %struct.SeqStore_t, %struct.ldmState_t, ptr, i64, %struct.RawSeqStore_t, %struct.ZSTD_blockState_t, ptr, i64, i32, ptr, i64, i64, i64, i64, ptr, i64, i64, i64, i32, i32, %struct.ZSTD_inBuffer_s, i64, i64, %struct.ZSTD_localDict, ptr, %struct.ZSTD_prefixDict_s, ptr, i64, %struct.ZSTD_blockSplitCtx, ptr, i64 }
%struct.ZSTD_CCtx_params_s = type { i32, %struct.ZSTD_compressionParameters, %struct.ZSTD_frameParameters, i32, i32, i64, i32, i32, i32, i32, i64, i32, i32, %struct.ldmParams_t, i32, i32, i32, i32, i32, i32, i32, i64, i32, i32, %struct.ZSTD_customMem, i32, i32, ptr, ptr, i32 }
%struct.ldmParams_t = type { i32, i32, i32, i32, i32, i32 }
%struct.ZSTD_cwksp = type { ptr, ptr, ptr, ptr, ptr, ptr, ptr, i8, i32, i32, i32 }
%struct.XXH64_state_s = type { i64, [4 x i64], [4 x i64], i32, i32, i64 }
%struct.SeqCollector = type { i32, ptr, i64, i64 }
%struct.SeqStore_t = type { ptr, ptr, ptr, ptr, ptr, ptr, ptr, i64, i64, i32, i32 }
%struct.ldmState_t = type { %struct.ZSTD_window_t, ptr, i32, ptr, [64 x i64], [64 x %struct.ldmMatchCandidate_t] }
%struct.ZSTD_window_t = type { ptr, ptr, ptr, i32, i32, i32 }
%struct.ldmMatchCandidate_t = type { ptr, i32, i32, ptr }
%struct.RawSeqStore_t = type { ptr, i64, i64, i64, i64 }
%struct.ZSTD_blockState_t = type { ptr, ptr, %struct.ZSTD_MatchState_t }
%struct.ZSTD_MatchState_t = type { %struct.ZSTD_window_t, i32, i32, i32, i32, ptr, [8 x i32], i64, i32, ptr, ptr, ptr, i32, i32, %struct.optState_t, ptr, %struct.ZSTD_compressionParameters, ptr, i32, i32 }
%struct.optState_t = type { ptr, ptr, ptr, ptr, ptr, ptr, i32, i32, i32, i32, i32, i32, i32, i32, i32, ptr, i32 }
%struct.ZSTD_inBuffer_s = type { ptr, i64, i64 }
%struct.ZSTD_localDict = type { ptr, ptr, i64, i32, ptr }
%struct.ZSTD_prefixDict_s = type { ptr, i64, i32 }
%struct.ZSTD_blockSplitCtx = type { %struct.SeqStore_t, %struct.SeqStore_t, %struct.SeqStore_t, %struct.SeqStore_t, %struct.SeqStore_t, [196 x i32], %struct.ZSTD_entropyCTablesMetadata_t }
%struct.ZSTD_entropyCTablesMetadata_t = type { %struct.ZSTD_hufCTablesMetadata_t, %struct.ZSTD_fseCTablesMetadata_t }
%struct.ZSTD_hufCTablesMetadata_t = type { i32, [128 x i8], i64 }
%struct.ZSTD_fseCTablesMetadata_t = type { i32, i32, i32, [133 x i8], i64, i64 }
%struct.ZSTD_cpuid_t = type { i32, i32, i32, i32 }

; Function Attrs: nounwind uwtable
define i64 @ZSTD_CCtxParams_init(ptr noundef %0, i32 noundef %1) #0 {
  %3 = alloca i64, align 8
  %4 = alloca ptr, align 8
  %5 = alloca i32, align 4
  store ptr %0, ptr %4, align 8, !tbaa !79
  store i32 %1, ptr %5, align 4, !tbaa !53
  br label %6

6:                                                ; preds = %2
  %7 = load ptr, ptr %4, align 8, !tbaa !79
  %8 = icmp ne ptr %7, null
  br i1 %8, label %18, label %9

9:                                                ; preds = %6
  br label %10

10:                                               ; preds = %9
  br label %11

11:                                               ; preds = %10
  br label %12

12:                                               ; preds = %11
  br label %13

13:                                               ; preds = %12
  br label %14

14:                                               ; preds = %13
  br label %15

15:                                               ; preds = %14
  br label %16

16:                                               ; preds = %15
  br label %17

17:                                               ; preds = %16
  store i64 -1, ptr %3, align 8
  br label %27

18:                                               ; preds = %6
  br label %19

19:                                               ; preds = %18
  %20 = load ptr, ptr %4, align 8, !tbaa !79
  call void @llvm.memset.p0.i64(ptr align 8 %20, i8 0, i64 224, i1 false)
  %21 = load i32, ptr %5, align 4, !tbaa !53
  %22 = load ptr, ptr %4, align 8, !tbaa !79
  %23 = getelementptr inbounds nuw %struct.ZSTD_CCtx_params_s, ptr %22, i32 0, i32 3
  store i32 %21, ptr %23, align 4, !tbaa !81
  %24 = load ptr, ptr %4, align 8, !tbaa !79
  %25 = getelementptr inbounds nuw %struct.ZSTD_CCtx_params_s, ptr %24, i32 0, i32 2
  %26 = getelementptr inbounds nuw %struct.ZSTD_frameParameters, ptr %25, i32 0, i32 0
  store i32 1, ptr %26, align 8, !tbaa !82
  store i64 0, ptr %3, align 8
  br label %27

27:                                               ; preds = %19, %17
  %28 = load i64, ptr %3, align 8
  ret i64 %28
}

; Function Attrs: nounwind uwtable
define i64 @ZSTD_CCtxParams_reset(ptr noundef %0) #0 {
  %2 = alloca ptr, align 8
  store ptr %0, ptr %2, align 8, !tbaa !79
  %3 = load ptr, ptr %2, align 8, !tbaa !79
  %4 = call i64 @ZSTD_CCtxParams_init(ptr noundef %3, i32 noundef 3)
  ret i64 %4
}

; Function Attrs: inlinehint nounwind uwtable
define internal i32 @ZSTD_cpuid_bmi2(i64 %0, i64 %1) #2 {
  %3 = alloca %struct.ZSTD_cpuid_t, align 4
  %4 = getelementptr inbounds nuw { i64, i64 }, ptr %3, i32 0, i32 0
  store i64 %0, ptr %4, align 4
  %5 = getelementptr inbounds nuw { i64, i64 }, ptr %3, i32 0, i32 1
  store i64 %1, ptr %5, align 4
  %6 = getelementptr inbounds nuw %struct.ZSTD_cpuid_t, ptr %3, i32 0, i32 2
  %7 = load i32, ptr %6, align 4, !tbaa !66
  %8 = and i32 %7, 256
  %9 = icmp ne i32 %8, 0
  %10 = zext i1 %9 to i32
  ret i32 %10
}

; Function Attrs: inlinehint nounwind uwtable
define internal i32 @ZSTD_cpuid_bmi1(i64 %0, i64 %1) #2 {
  %3 = alloca %struct.ZSTD_cpuid_t, align 4
  %4 = getelementptr inbounds nuw { i64, i64 }, ptr %3, i32 0, i32 0
  store i64 %0, ptr %4, align 4
  %5 = getelementptr inbounds nuw { i64, i64 }, ptr %3, i32 0, i32 1
  store i64 %1, ptr %5, align 4
  %6 = getelementptr inbounds nuw %struct.ZSTD_cpuid_t, ptr %3, i32 0, i32 2
  %7 = load i32, ptr %6, align 4, !tbaa !66
  %8 = and i32 %7, 8
  %9 = icmp ne i32 %8, 0
  %10 = zext i1 %9 to i32
  ret i32 %10
}

; Function Attrs: inlinehint nounwind uwtable
define internal { i64, i64 } @ZSTD_cpuid() #2 {
  %1 = alloca %struct.ZSTD_cpuid_t, align 4
  %2 = alloca i32, align 4
  %3 = alloca i32, align 4
  %4 = alloca i32, align 4
  %5 = alloca i32, align 4
  %6 = alloca i32, align 4
  %7 = alloca i32, align 4
  %8 = alloca i32, align 4
  call void @llvm.lifetime.start.p0(i64 4, ptr %2) #15
  store i32 0, ptr %2, align 4, !tbaa !53
  call void @llvm.lifetime.start.p0(i64 4, ptr %3) #15
  store i32 0, ptr %3, align 4, !tbaa !53
  call void @llvm.lifetime.start.p0(i64 4, ptr %4) #15
  store i32 0, ptr %4, align 4, !tbaa !53
  call void @llvm.lifetime.start.p0(i64 4, ptr %5) #15
  store i32 0, ptr %5, align 4, !tbaa !53
  call void @llvm.lifetime.start.p0(i64 4, ptr %6) #15
  %9 = call i32 asm "cpuid", "={ax},{ax},~{ebx},~{ecx},~{edx},~{dirflag},~{fpsr},~{flags}"(i32 0) #17, !srcloc !68
  store i32 %9, ptr %6, align 4, !tbaa !53
  %10 = load i32, ptr %6, align 4, !tbaa !53
  %11 = icmp uge i32 %10, 1
  br i1 %11, label %12, label %17

12:                                               ; preds = %0
  call void @llvm.lifetime.start.p0(i64 4, ptr %7) #15
  %13 = call { i32, i32, i32 } asm "cpuid", "={ax},={cx},={dx},{ax},~{ebx},~{dirflag},~{fpsr},~{flags}"(i32 1) #17, !srcloc !69
  %14 = extractvalue { i32, i32, i32 } %13, 0
  %15 = extractvalue { i32, i32, i32 } %13, 1
  %16 = extractvalue { i32, i32, i32 } %13, 2
  store i32 %14, ptr %7, align 4, !tbaa !53
  store i32 %15, ptr %2, align 4, !tbaa !53
  store i32 %16, ptr %3, align 4, !tbaa !53
  call void @llvm.lifetime.end.p0(i64 4, ptr %7) #15
  br label %17

17:                                               ; preds = %12, %0
  %18 = load i32, ptr %6, align 4, !tbaa !53
  %19 = icmp uge i32 %18, 7
  br i1 %19, label %20, label %25

20:                                               ; preds = %17
  call void @llvm.lifetime.start.p0(i64 4, ptr %8) #15
  %21 = call { i32, i32, i32 } asm "cpuid", "={ax},={bx},={cx},{ax},{cx},~{edx},~{dirflag},~{fpsr},~{flags}"(i32 7, i32 0) #17, !srcloc !70
  %22 = extractvalue { i32, i32, i32 } %21, 0
  %23 = extractvalue { i32, i32, i32 } %21, 1
  %24 = extractvalue { i32, i32, i32 } %21, 2
  store i32 %22, ptr %8, align 4, !tbaa !53
  store i32 %23, ptr %4, align 4, !tbaa !53
  store i32 %24, ptr %5, align 4, !tbaa !53
  call void @llvm.lifetime.end.p0(i64 4, ptr %8) #15
  br label %25

25:                                               ; preds = %20, %17
  %26 = load i32, ptr %2, align 4, !tbaa !53
  %27 = getelementptr inbounds nuw %struct.ZSTD_cpuid_t, ptr %1, i32 0, i32 0
  store i32 %26, ptr %27, align 4, !tbaa !71
  %28 = load i32, ptr %3, align 4, !tbaa !53
  %29 = getelementptr inbounds nuw %struct.ZSTD_cpuid_t, ptr %1, i32 0, i32 1
  store i32 %28, ptr %29, align 4, !tbaa !72
  %30 = load i32, ptr %4, align 4, !tbaa !53
  %31 = getelementptr inbounds nuw %struct.ZSTD_cpuid_t, ptr %1, i32 0, i32 2
  store i32 %30, ptr %31, align 4, !tbaa !66
  %32 = load i32, ptr %5, align 4, !tbaa !53
  %33 = getelementptr inbounds nuw %struct.ZSTD_cpuid_t, ptr %1, i32 0, i32 3
  store i32 %32, ptr %33, align 4, !tbaa !73
  call void @llvm.lifetime.end.p0(i64 4, ptr %6) #15
  call void @llvm.lifetime.end.p0(i64 4, ptr %5) #15
  call void @llvm.lifetime.end.p0(i64 4, ptr %4) #15
  call void @llvm.lifetime.end.p0(i64 4, ptr %3) #15
  call void @llvm.lifetime.end.p0(i64 4, ptr %2) #15
  %34 = load { i64, i64 }, ptr %1, align 4
  ret { i64, i64 } %34
}

; Function Attrs: nounwind uwtable
define i64 @ZSTD_CCtx_reset(ptr noundef %0, i32 noundef %1) #0 {
  %3 = alloca i64, align 8
  %4 = alloca ptr, align 8
  %5 = alloca i32, align 4
  store ptr %0, ptr %4, align 8, !tbaa !11
  store i32 %1, ptr %5, align 4, !tbaa !53
  %6 = load i32, ptr %5, align 4, !tbaa !53
  %7 = icmp eq i32 %6, 1
  br i1 %7, label %11, label %8

8:                                                ; preds = %2
  %9 = load i32, ptr %5, align 4, !tbaa !53
  %10 = icmp eq i32 %9, 3
  br i1 %10, label %11, label %16

11:                                               ; preds = %8, %2
  %12 = load ptr, ptr %4, align 8, !tbaa !11
  %13 = getelementptr inbounds nuw %struct.ZSTD_CCtx_s, ptr %12, i32 0, i32 38
  store i32 0, ptr %13, align 8, !tbaa !102
  %14 = load ptr, ptr %4, align 8, !tbaa !11
  %15 = getelementptr inbounds nuw %struct.ZSTD_CCtx_s, ptr %14, i32 0, i32 10
  store i64 0, ptr %15, align 8, !tbaa !142
  br label %16

16:                                               ; preds = %11, %8
  %17 = load i32, ptr %5, align 4, !tbaa !53
  %18 = icmp eq i32 %17, 2
  br i1 %18, label %22, label %19

19:                                               ; preds = %16
  %20 = load i32, ptr %5, align 4, !tbaa !53
  %21 = icmp eq i32 %20, 3
  br i1 %21, label %22, label %43

22:                                               ; preds = %19, %16
  br label %23

23:                                               ; preds = %22
  %24 = load ptr, ptr %4, align 8, !tbaa !11
  %25 = getelementptr inbounds nuw %struct.ZSTD_CCtx_s, ptr %24, i32 0, i32 38
  %26 = load i32, ptr %25, align 8, !tbaa !102
  %27 = icmp ne i32 %26, 0
  br i1 %27, label %28, label %37

28:                                               ; preds = %23
  br label %29

29:                                               ; preds = %28
  br label %30

30:                                               ; preds = %29
  br label %31

31:                                               ; preds = %30
  br label %32

32:                                               ; preds = %31
  br label %33

33:                                               ; preds = %32
  br label %34

34:                                               ; preds = %33
  br label %35

35:                                               ; preds = %34
  br label %36

36:                                               ; preds = %35
  store i64 -60, ptr %3, align 8
  br label %44

37:                                               ; preds = %23
  br label %38

38:                                               ; preds = %37
  %39 = load ptr, ptr %4, align 8, !tbaa !11
  call void @ZSTD_clearAllDicts(ptr noundef %39)
  %40 = load ptr, ptr %4, align 8, !tbaa !11
  %41 = getelementptr inbounds nuw %struct.ZSTD_CCtx_s, ptr %40, i32 0, i32 3
  %42 = call i64 @ZSTD_CCtxParams_reset(ptr noundef %41)
  store i64 %42, ptr %3, align 8
  br label %44

43:                                               ; preds = %19
  store i64 0, ptr %3, align 8
  br label %44

44:                                               ; preds = %43, %38, %36
  %45 = load i64, ptr %3, align 8
  ret i64 %45
}

; Function Attrs: inlinehint nounwind uwtable
define internal i32 @ZSTD_cpuSupportsBmi2() #2 {
  %1 = alloca %struct.ZSTD_cpuid_t, align 4
  call void @llvm.lifetime.start.p0(i64 16, ptr %1) #15
  %2 = call { i64, i64 } @ZSTD_cpuid()
  %3 = getelementptr inbounds nuw { i64, i64 }, ptr %1, i32 0, i32 0
  %4 = extractvalue { i64, i64 } %2, 0
  store i64 %4, ptr %3, align 4
  %5 = getelementptr inbounds nuw { i64, i64 }, ptr %1, i32 0, i32 1
  %6 = extractvalue { i64, i64 } %2, 1
  store i64 %6, ptr %5, align 4
  %7 = getelementptr inbounds nuw { i64, i64 }, ptr %1, i32 0, i32 0
  %8 = load i64, ptr %7, align 4
  %9 = getelementptr inbounds nuw { i64, i64 }, ptr %1, i32 0, i32 1
  %10 = load i64, ptr %9, align 4
  %11 = call i32 @ZSTD_cpuid_bmi1(i64 %8, i64 %10)
  %12 = icmp ne i32 %11, 0
  br i1 %12, label %13, label %20

13:                                               ; preds = %0
  %14 = getelementptr inbounds nuw { i64, i64 }, ptr %1, i32 0, i32 0
  %15 = load i64, ptr %14, align 4
  %16 = getelementptr inbounds nuw { i64, i64 }, ptr %1, i32 0, i32 1
  %17 = load i64, ptr %16, align 4
  %18 = call i32 @ZSTD_cpuid_bmi2(i64 %15, i64 %17)
  %19 = icmp ne i32 %18, 0
  br label %20

20:                                               ; preds = %13, %0
  %21 = phi i1 [ false, %0 ], [ %19, %13 ]
  %22 = zext i1 %21 to i32
  call void @llvm.lifetime.end.p0(i64 16, ptr %1) #15
  ret i32 %22
}

; Function Attrs: nounwind uwtable
define internal void @ZSTD_initCCtx(ptr noundef %0, ptr noundef byval(%struct.ZSTD_customMem) align 8 %1) #0 {
  %3 = alloca ptr, align 8
  %4 = alloca i64, align 8
  store ptr %0, ptr %3, align 8, !tbaa !11
  %5 = load ptr, ptr %3, align 8, !tbaa !11
  call void @llvm.memset.p0.i64(ptr align 8 %5, i8 0, i64 5288, i1 false)
  %6 = load ptr, ptr %3, align 8, !tbaa !11
  %7 = getelementptr inbounds nuw %struct.ZSTD_CCtx_s, ptr %6, i32 0, i32 14
  call void @llvm.memcpy.p0.p0.i64(ptr align 8 %7, ptr align 8 %1, i64 24, i1 false), !tbaa.struct !14
  %8 = call i32 @ZSTD_cpuSupportsBmi2()
  %9 = load ptr, ptr %3, align 8, !tbaa !11
  %10 = getelementptr inbounds nuw %struct.ZSTD_CCtx_s, ptr %9, i32 0, i32 2
  store i32 %8, ptr %10, align 8, !tbaa !16
  call void @llvm.lifetime.start.p0(i64 8, ptr %4) #15
  %11 = load ptr, ptr %3, align 8, !tbaa !11
  %12 = call i64 @ZSTD_CCtx_reset(ptr noundef %11, i32 noundef 2)
  store i64 %12, ptr %4, align 8, !tbaa !3
  call void @llvm.lifetime.end.p0(i64 8, ptr %4) #15
  ret void
}

; Function Attrs: inlinehint nounwind uwtable
define internal ptr @ZSTD_customMalloc(i64 noundef %0, ptr noundef byval(%struct.ZSTD_customMem) align 8 %1) #2 {
  %3 = alloca ptr, align 8
  %4 = alloca i64, align 8
  store i64 %0, ptr %4, align 8, !tbaa !3
  %5 = getelementptr inbounds nuw %struct.ZSTD_customMem, ptr %1, i32 0, i32 0
  %6 = load ptr, ptr %5, align 8, !tbaa !7
  %7 = icmp ne ptr %6, null
  br i1 %7, label %8, label %15

8:                                                ; preds = %2
  %9 = getelementptr inbounds nuw %struct.ZSTD_customMem, ptr %1, i32 0, i32 0
  %10 = load ptr, ptr %9, align 8, !tbaa !7
  %11 = getelementptr inbounds nuw %struct.ZSTD_customMem, ptr %1, i32 0, i32 2
  %12 = load ptr, ptr %11, align 8, !tbaa !13
  %13 = load i64, ptr %4, align 8, !tbaa !3
  %14 = call ptr %10(ptr noundef %12, i64 noundef %13)
  store ptr %14, ptr %3, align 8
  br label %18

15:                                               ; preds = %2
  %16 = load i64, ptr %4, align 8, !tbaa !3
  %17 = call noalias ptr @malloc(i64 noundef %16) #16
  store ptr %17, ptr %3, align 8
  br label %18

18:                                               ; preds = %15, %8
  %19 = load ptr, ptr %3, align 8
  ret ptr %19
}

; Function Attrs: nounwind uwtable
define ptr @ZSTD_createCCtx_advanced(ptr noundef byval(%struct.ZSTD_customMem) align 8 %0) #0 {
  %2 = alloca ptr, align 8
  %3 = alloca ptr, align 8
  %4 = alloca i32, align 4
  %5 = getelementptr inbounds nuw %struct.ZSTD_customMem, ptr %0, i32 0, i32 0
  %6 = load ptr, ptr %5, align 8, !tbaa !7
  %7 = icmp ne ptr %6, null
  %8 = xor i1 %7, true
  %9 = zext i1 %8 to i32
  %10 = getelementptr inbounds nuw %struct.ZSTD_customMem, ptr %0, i32 0, i32 1
  %11 = load ptr, ptr %10, align 8, !tbaa !10
  %12 = icmp ne ptr %11, null
  %13 = xor i1 %12, true
  %14 = zext i1 %13 to i32
  %15 = xor i32 %9, %14
  %16 = icmp ne i32 %15, 0
  br i1 %16, label %17, label %18

17:                                               ; preds = %1
  store ptr null, ptr %2, align 8
  br label %27

18:                                               ; preds = %1
  call void @llvm.lifetime.start.p0(i64 8, ptr %3) #15
  %19 = call ptr @ZSTD_customMalloc(i64 noundef 5288, ptr noundef byval(%struct.ZSTD_customMem) align 8 %0)
  store ptr %19, ptr %3, align 8, !tbaa !11
  %20 = load ptr, ptr %3, align 8, !tbaa !11
  %21 = icmp ne ptr %20, null
  br i1 %21, label %23, label %22

22:                                               ; preds = %18
  store ptr null, ptr %2, align 8
  store i32 1, ptr %4, align 4
  br label %26

23:                                               ; preds = %18
  %24 = load ptr, ptr %3, align 8, !tbaa !11
  call void @ZSTD_initCCtx(ptr noundef %24, ptr noundef byval(%struct.ZSTD_customMem) align 8 %0)
  %25 = load ptr, ptr %3, align 8, !tbaa !11
  store ptr %25, ptr %2, align 8
  store i32 1, ptr %4, align 4
  br label %26

26:                                               ; preds = %23, %22
  call void @llvm.lifetime.end.p0(i64 8, ptr %3) #15
  br label %27

27:                                               ; preds = %26, %17
  %28 = load ptr, ptr %2, align 8
  ret ptr %28
}